target datalayout = "e-m:e-p270:32:32-p271:32:32-p272:64:64-i64:64-i128:128-f80:128-n8:16:32:64-S128"
target triple = "x86_64-pc-linux-gnu"

; Function Attrs: inlinehint mustprogress nounwind uwtable
define linkonce_odr noundef float @_ZSt4fabsf(float noundef %0) #3 comdat {
  %2 = alloca float, align 4
  store float %0, ptr %2, align 4, !tbaa !22
  %3 = load float, ptr %2, align 4, !tbaa !22
  %4 = call float @llvm.fabs.f32(float %3)
  ret float %4
}

; Function Attrs: mustprogress uwtable
define noundef zeroext i1 @_Z10equal_realffff(float noundef %0, float noundef %1, float noundef %2, float noundef %3) #2 {
  %5 = alloca float, align 4
  %6 = alloca float, align 4
  %7 = alloca float, align 4
  %8 = alloca float, align 4
  store float %0, ptr %5, align 4, !tbaa !22
  store float %1, ptr %6, align 4, !tbaa !22
  store float %2, ptr %7, align 4, !tbaa !22
  store float %3, ptr %8, align 4, !tbaa !22
  %9 = load float, ptr %5, align 4, !tbaa !22
  %10 = load float, ptr %6, align 4, !tbaa !22
  %11 = fsub float %9, %10
  %12 = call noundef float @_ZSt4fabsf(float noundef %11)
  %13 = fmul float 2.000000e+00, %12
  %14 = load float, ptr %5, align 4, !tbaa !22
  %15 = call noundef float @_ZSt4fabsf(float noundef %14)
  %16 = load float, ptr %6, align 4, !tbaa !22
  %17 = call noundef float @_ZSt4fabsf(float noundef %16)
  %18 = fadd float %15, %17
  %19 = load float, ptr %7, align 4, !tbaa !22
  %20 = fmul float %18, %19
  %21 = fcmp ole float %13, %20
  br i1 %21, label %29, label %22

22:                                               ; preds = %4
  %23 = load float, ptr %5, align 4, !tbaa !22
  %24 = load float, ptr %6, align 4, !tbaa !22
  %25 = fsub float %23, %24
  %26 = call noundef float @_ZSt4fabsf(float noundef %25)
  %27 = load float, ptr %8, align 4, !tbaa !22
  %28 = fcmp ole float %26, %27
  br label %29

29:                                               ; preds = %22, %4
  %30 = phi i1 [ true, %4 ], [ %28, %22 ]
  ret i1 %30
}