; Function Attrs: mustprogress nofree norecurse nosync nounwind willreturn memory(none) uwtable
define noundef zeroext i1 @_Z10equal_realffff(float noundef %0, float noundef %1, float noundef %2, float noundef %3) local_unnamed_addr #3 {
  %5 = fsub float %0, %1
  %6 = tail call noundef float @llvm.fabs.f32(float %5)
  %7 = fmul float %6, 2.000000e+00
  %8 = tail call noundef float @llvm.fabs.f32(float %0)
  %9 = tail call noundef float @llvm.fabs.f32(float %1)
  %10 = fadd float %8, %9
  %11 = fmul float %2, %10
  %12 = fcmp ole float %7, %11
  %13 = fcmp ole float %6, %3
  %14 = or i1 %13, %12
  ret i1 %14
}